; Function Attrs: nofree norecurse nosync nounwind memory(argmem: readwrite) uwtable
define internal void @jpeg_undifference5(ptr readnone captures(none) %0, i32 %1, ptr noundef readonly captures(none) %2, ptr noundef readonly captures(none) %3, ptr noundef writeonly captures(none) initializes((0, 4)) %4, i32 noundef %5) #2 {
  %7 = load i32, ptr %3, align 4, !tbaa !52
  %8 = load i32, ptr %2, align 4, !tbaa !52
  %9 = add nsw i32 %8, %7
  %10 = and i32 %9, 65535
  store i32 %10, ptr %4, align 4, !tbaa !52
  %11 = add i32 %5, -1
  %.not21 = icmp eq i32 %11, 0
  br i1 %.not21, label %._crit_edge, label %.lr.ph

.lr.ph:                                           ; preds = %6, %.lr.ph
  %12 = phi i32 [ %20, %.lr.ph ], [ %11, %6 ]
  %.pn1926 = phi ptr [ %.0, %.lr.ph ], [ %2, %6 ]
  %.01325 = phi i32 [ %13, %.lr.ph ], [ %7, %6 ]
  %.01424 = phi i32 [ %19, %.lr.ph ], [ %10, %6 ]
  %.pn2023 = phi ptr [ %.016, %.lr.ph ], [ %4, %6 ]
  %.pn22 = phi ptr [ %.017, %.lr.ph ], [ %3, %6 ]
  %.016 = getelementptr inbounds nuw i8, ptr %.pn2023, i64 4
  %.0 = getelementptr inbounds nuw i8, ptr %.pn1926, i64 4
  %.017 = getelementptr inbounds nuw i8, ptr %.pn22, i64 4
  %13 = load i32, ptr %.017, align 4, !tbaa !52
  %14 = load i32, ptr %.0, align 4, !tbaa !52
  %15 = sub i32 %13, %.01325
  %16 = lshr i32 %15, 1
  %17 = add i32 %14, %.01424
  %18 = add i32 %17, %16
  %19 = and i32 %18, 65535
  store i32 %19, ptr %.016, align 4, !tbaa !52
  %20 = add i32 %12, -1
  %.not = icmp eq i32 %20, 0
  br i1 %.not, label %._crit_edge, label %.lr.ph, !llvm.loop !60

._crit_edge:                                      ; preds = %.lr.ph, %6
  ret void
}